target datalayout = "e-m:e-p270:32:32-p271:32:32-p272:64:64-i64:64-i128:128-f80:128-n8:16:32:64-S128"
target triple = "x86_64-unknown-linux-gnu"

%"class.Assimp::FBX::Token" = type <{ ptr, ptr, i32, [4 x i8], %union.anon, i32, [4 x i8] }>
%union.anon = type { i64 }

; Function Attrs: mustprogress nounwind uwtable
define hidden void @_ZN6Assimp3FBX5TokenC2EPKcS3_NS0_9TokenTypeEm(ptr noundef nonnull align 8 dereferenceable(36) %this, ptr noundef %sbegin, ptr noundef %send, i32 noundef %type, i64 noundef %offset) unnamed_addr #0 align 2 {
entry:
  %this.addr = alloca ptr, align 8
  %sbegin.addr = alloca ptr, align 8
  %send.addr = alloca ptr, align 8
  %type.addr = alloca i32, align 4
  %offset.addr = alloca i64, align 8
  store ptr %this, ptr %this.addr, align 8
  store ptr %sbegin, ptr %sbegin.addr, align 8
  store ptr %send, ptr %send.addr, align 8
  store i32 %type, ptr %type.addr, align 4
  store i64 %offset, ptr %offset.addr, align 8
  %this1 = load ptr, ptr %this.addr, align 8
  %sbegin2 = getelementptr inbounds %"class.Assimp::FBX::Token", ptr %this1, i32 0, i32 0
  %0 = load ptr, ptr %sbegin.addr, align 8
  store ptr %0, ptr %sbegin2, align 8
  %send3 = getelementptr inbounds %"class.Assimp::FBX::Token", ptr %this1, i32 0, i32 1
  %1 = load ptr, ptr %send.addr, align 8
  store ptr %1, ptr %send3, align 8
  %type4 = getelementptr inbounds %"class.Assimp::FBX::Token", ptr %this1, i32 0, i32 2
  %2 = load i32, ptr %type.addr, align 4
  store i32 %2, ptr %type4, align 8
  %3 = getelementptr inbounds %"class.Assimp::FBX::Token", ptr %this1, i32 0, i32 4
  %4 = load i64, ptr %offset.addr, align 8
  store i64 %4, ptr %3, align 8
  %column = getelementptr inbounds %"class.Assimp::FBX::Token", ptr %this1, i32 0, i32 5
  store i32 -1, ptr %column, align 8
  ret void
}