; Function Attrs: mustprogress nofree norecurse nosync nounwind willreturn memory(argmem: write) uwtable
define hidden void @_ZN6Assimp3FBX5TokenC2EPKcS3_NS0_9TokenTypeEm(ptr nocapture noundef nonnull writeonly align 8 dereferenceable(36) %this, ptr noundef %sbegin, ptr noundef %send, i32 noundef %type, i64 noundef %offset) unnamed_addr #0 align 2 {
entry:
  store ptr %sbegin, ptr %this, align 8
  %send3 = getelementptr inbounds i8, ptr %this, i64 8
  store ptr %send, ptr %send3, align 8
  %type4 = getelementptr inbounds i8, ptr %this, i64 16
  store i32 %type, ptr %type4, align 8
  %0 = getelementptr inbounds i8, ptr %this, i64 24
  store i64 %offset, ptr %0, align 8
  %column = getelementptr inbounds i8, ptr %this, i64 32
  store i32 -1, ptr %column, align 8
  ret void
}